; Function Attrs: nounwind uwtable
define nonnull ptr @l_Lake_Toml_decodeHexDigit___boxed(ptr noundef %0) local_unnamed_addr #0 {
  %2 = ptrtoint ptr %0 to i64
  %3 = lshr i64 %2, 1
  %4 = trunc i64 %3 to i32
  %5 = and i64 %2, 1
  %.not = icmp eq i64 %5, 0
  br i1 %.not, label %6, label %lean_dec.exit

6:                                                ; preds = %1
  %7 = load i32, ptr %0, align 4, !tbaa !8
  %8 = icmp sgt i32 %7, 1
  br i1 %8, label %9, label %11, !prof !11

9:                                                ; preds = %6
  %10 = add nsw i32 %7, -1
  store i32 %10, ptr %0, align 4, !tbaa !8
  br label %lean_dec.exit

11:                                               ; preds = %6
  %.not.i = icmp eq i32 %7, 0
  br i1 %.not.i, label %lean_dec.exit, label %12

12:                                               ; preds = %11
  tail call void @lean_dec_ref_cold(ptr noundef nonnull %0) #7
  br label %lean_dec.exit

lean_dec.exit:                                    ; preds = %12, %11, %9, %1
  %13 = icmp ugt i32 %4, 57
  br i1 %13, label %14, label %24

14:                                               ; preds = %lean_dec.exit
  %15 = icmp ugt i32 %4, 70
  br i1 %15, label %16, label %20

16:                                               ; preds = %14
  %17 = add i64 %2, 8589934398
  %18 = and i64 %17, 8589934590
  %19 = add nuw nsw i64 %18, 21
  br label %l_Lake_Toml_decodeHexDigit.exit

20:                                               ; preds = %14
  %21 = add i64 %2, 8589934462
  %22 = and i64 %21, 8589934590
  %23 = add nuw nsw i64 %22, 21
  br label %l_Lake_Toml_decodeHexDigit.exit

24:                                               ; preds = %lean_dec.exit
  %25 = add i64 %2, 8589934496
  %26 = and i64 %25, 8589934590
  %27 = or disjoint i64 %26, 1
  br label %l_Lake_Toml_decodeHexDigit.exit

l_Lake_Toml_decodeHexDigit.exit:                  ; preds = %16, %20, %24
  %.1.in.i = phi i64 [ %27, %24 ], [ %19, %16 ], [ %23, %20 ]
  %.1.i = inttoptr i64 %.1.in.i to ptr
  ret ptr %.1.i
}